; Function Attrs: nounwind uwtable
define range(i32 0, 12) i32 @curl_multi_socket(ptr noundef %0, i32 noundef %1, ptr noundef %2) local_unnamed_addr #0 {
  %4 = getelementptr inbounds nuw i8, ptr %0, i64 649
  %5 = load i8, ptr %4, align 1
  %6 = and i8 %5, 4
  %.not = icmp eq i8 %6, 0
  br i1 %.not, label %7, label %9

7:                                                ; preds = %3
  %8 = tail call fastcc i32 @multi_socket(ptr noundef nonnull %0, i1 noundef zeroext false, i32 noundef %1, i32 noundef 0, ptr noundef %2)
  br label %9

9:                                                ; preds = %3, %7
  %.0 = phi i32 [ %8, %7 ], [ 8, %3 ]
  ret i32 %.0
}